; Function Attrs: mustprogress nounwind uwtable
define hidden void @_ZN6hermes11Instruction11pushOperandEPNS_5ValueE(ptr noundef nonnull align 8 dereferenceable(132) %this, ptr noundef %Val) local_unnamed_addr #0 align 2 {
entry:
  %Operands = getelementptr inbounds i8, ptr %this, i64 64
  %Size.i.i = getelementptr inbounds i8, ptr %this, i64 72
  %0 = load i32, ptr %Size.i.i, align 8
  %Capacity.i.i = getelementptr inbounds i8, ptr %this, i64 76
  %1 = load i32, ptr %Capacity.i.i, align 4
  %cmp.not.i = icmp ult i32 %0, %1
  br i1 %cmp.not.i, label %_ZN4llvh23SmallVectorTemplateBaseISt4pairIPN6hermes5ValueEjELb1EE9push_backERKS5_.exit, label %if.then.i

if.then.i:                                        ; preds = %entry
  %add.ptr.i.i.i.i = getelementptr inbounds i8, ptr %this, i64 80
  tail call void @_ZN4llvh15SmallVectorBase8grow_podEPvmm(ptr noundef nonnull align 8 dereferenceable(16) %Operands, ptr noundef nonnull %add.ptr.i.i.i.i, i64 noundef 0, i64 noundef 16) #26
  %.pre.i = load i32, ptr %Size.i.i, align 8
  br label %_ZN4llvh23SmallVectorTemplateBaseISt4pairIPN6hermes5ValueEjELb1EE9push_backERKS5_.exit

_ZN4llvh23SmallVectorTemplateBaseISt4pairIPN6hermes5ValueEjELb1EE9push_backERKS5_.exit: ; preds = %entry, %if.then.i
  %2 = phi i32 [ %.pre.i, %if.then.i ], [ %0, %entry ]
  %3 = load ptr, ptr %Operands, align 8
  %conv.i3.i = zext i32 %2 to i64
  %add.ptr.i.i = getelementptr inbounds %"struct.std::pair", ptr %3, i64 %conv.i3.i
  store ptr null, ptr %add.ptr.i.i, align 1
  %ref.tmp.sroa.2.0.add.ptr.i.i.sroa_idx = getelementptr inbounds i8, ptr %add.ptr.i.i, i64 8
  store i32 0, ptr %ref.tmp.sroa.2.0.add.ptr.i.i.sroa_idx, align 1
  %4 = load i32, ptr %Size.i.i, align 8
  %add.i = add i32 %4, 1
  store i32 %add.i, ptr %Size.i.i, align 8
  tail call void @_ZN6hermes11Instruction10setOperandEPNS_5ValueEj(ptr noundef nonnull align 8 dereferenceable(132) %this, ptr noundef %Val, i32 noundef %4)
  ret void
}